target datalayout = "e-m:e-p270:32:32-p271:32:32-p272:64:64-i64:64-i128:128-f80:128-n8:16:32:64-S128"
target triple = "x86_64-pc-linux-gnu"

%struct.LocationFilter = type { ptr, ptr, i64 }

; Function Attrs: nounwind uwtable
define hidden zeroext i8 @isBreakpointSet(ptr noundef %0, ptr noundef %1, i64 noundef %2) #0 {
  %4 = alloca ptr, align 8
  %5 = alloca ptr, align 8
  %6 = alloca i64, align 8
  %7 = alloca %struct.LocationFilter, align 8
  store ptr %0, ptr %4, align 8
  store ptr %1, ptr %5, align 8
  store i64 %2, ptr %6, align 8
  %8 = load ptr, ptr %4, align 8
  %9 = getelementptr inbounds %struct.LocationFilter, ptr %7, i32 0, i32 0
  store ptr %8, ptr %9, align 8
  %10 = load ptr, ptr %5, align 8
  %11 = getelementptr inbounds %struct.LocationFilter, ptr %7, i32 0, i32 1
  store ptr %10, ptr %11, align 8
  %12 = load i64, ptr %6, align 8
  %13 = getelementptr inbounds %struct.LocationFilter, ptr %7, i32 0, i32 2
  store i64 %12, ptr %13, align 8
  %14 = call zeroext i8 @eventHandlerRestricted_iterator(i32 noundef 2, ptr noundef @matchBreakpoint, ptr noundef %7)
  ret i8 %14
}