; Function Attrs: nounwind uwtable
define hidden zeroext i8 @isBreakpointSet(ptr noundef %0, ptr noundef %1, i64 noundef %2) local_unnamed_addr #0 {
  %4 = alloca %struct.LocationFilter, align 8
  store ptr %0, ptr %4, align 8
  %5 = getelementptr inbounds i8, ptr %4, i64 8
  store ptr %1, ptr %5, align 8
  %6 = getelementptr inbounds i8, ptr %4, i64 16
  store i64 %2, ptr %6, align 8
  %7 = call zeroext i8 @eventHandlerRestricted_iterator(i32 noundef 2, ptr noundef nonnull @matchBreakpoint, ptr noundef nonnull %4) #6
  ret i8 %7
}